target datalayout = "e-m:e-p270:32:32-p271:32:32-p272:64:64-i64:64-i128:128-f80:128-n8:16:32:64-S128"
target triple = "x86_64-pc-linux-gnu"

%"class.bParse::bFile" = type <{ ptr, [7 x i8], i8, ptr, i32, i32, %class.b3HashMap, i32, [4 x i8], ptr, ptr, %class.b3AlignedObjectArray.4, %class.b3AlignedObjectArray.4, %class.b3AlignedObjectArray.6, %class.b3HashMap.8, %class.b3HashMap, i32, [4 x i8] }>
%class.b3AlignedObjectArray.4 = type <{ [4 x i8], i32, i32, [4 x i8], ptr, i8, [7 x i8] }>
%class.b3AlignedObjectArray.6 = type <{ [4 x i8], i32, i32, [4 x i8], ptr, i8, [7 x i8] }>
%class.b3HashMap.8 = type { %class.b3AlignedObjectArray, %class.b3AlignedObjectArray, %class.b3AlignedObjectArray.6, %class.b3AlignedObjectArray.2 }
%class.b3AlignedObjectArray = type <{ [4 x i8], i32, i32, [4 x i8], ptr, i8, [7 x i8] }>
%class.b3AlignedObjectArray.2 = type <{ [4 x i8], i32, i32, [4 x i8], ptr, i8, [7 x i8] }>
%class.b3HashMap = type { %class.b3AlignedObjectArray, %class.b3AlignedObjectArray, %class.b3AlignedObjectArray.0, %class.b3AlignedObjectArray.2 }
%class.b3AlignedObjectArray.0 = type <{ [4 x i8], i32, i32, [4 x i8], ptr, i8, [7 x i8] }>
%"class.bParse::bChunkPtr4" = type { i32, i32, %union.anon, i32, i32 }
%union.anon = type { i32 }
%"class.bParse::bChunkPtr8" = type { i32, i32, %union.anon.21, i32, i32 }
%union.anon.21 = type { i64 }

; Function Attrs: mustprogress nounwind uwtable
define dso_local void @_ZN6bParse5bFile7swapLenEPc(ptr noundef nonnull align 8 dereferenceable(540) %0, ptr noundef %1) #7 align 2 {
  %3 = alloca ptr, align 8
  %4 = alloca ptr, align 8
  %5 = alloca i8, align 1
  %6 = alloca ptr, align 8
  %7 = alloca i8, align 1
  %8 = alloca ptr, align 8
  %9 = alloca i8, align 1
  %10 = alloca ptr, align 8
  %11 = alloca i8, align 1
  %12 = alloca ptr, align 8
  %13 = alloca ptr, align 8
  %14 = alloca i8, align 1
  %15 = alloca ptr, align 8
  %16 = alloca i8, align 1
  %17 = alloca ptr, align 8
  %18 = alloca i8, align 1
  %19 = alloca ptr, align 8
  store ptr %0, ptr %3, align 8, !tbaa !16
  store ptr %1, ptr %4, align 8, !tbaa !4
  %20 = load ptr, ptr %3, align 8
  call void @llvm.lifetime.start.p0(i64 1, ptr %5) #16
  store i8 1, ptr %5, align 1, !tbaa !67
  %21 = getelementptr inbounds nuw %"class.bParse::bFile", ptr %20, i32 0, i32 16
  %22 = load i32, ptr %21, align 8, !tbaa !46
  %23 = and i32 %22, 16
  %24 = icmp ne i32 %23, 0
  br i1 %24, label %25, label %110

25:                                               ; preds = %2
  call void @llvm.lifetime.start.p0(i64 8, ptr %6) #16
  %26 = load ptr, ptr %4, align 8, !tbaa !4
  store ptr %26, ptr %6, align 8, !tbaa !90
  %27 = load ptr, ptr %6, align 8, !tbaa !90
  %28 = getelementptr inbounds nuw %"class.bParse::bChunkPtr4", ptr %27, i32 0, i32 0
  %29 = load i32, ptr %28, align 4, !tbaa !68
  %30 = and i32 %29, 65535
  %31 = icmp eq i32 %30, 0
  br i1 %31, label %32, label %37

32:                                               ; preds = %25
  %33 = load ptr, ptr %6, align 8, !tbaa !90
  %34 = getelementptr inbounds nuw %"class.bParse::bChunkPtr4", ptr %33, i32 0, i32 0
  %35 = load i32, ptr %34, align 4, !tbaa !68
  %36 = ashr i32 %35, 16
  store i32 %36, ptr %34, align 4, !tbaa !68
  br label %37

37:                                               ; preds = %32, %25
  call void @llvm.lifetime.start.p0(i64 1, ptr %7) #16
  call void @llvm.lifetime.start.p0(i64 8, ptr %8) #16
  %38 = load ptr, ptr %6, align 8, !tbaa !90
  %39 = getelementptr inbounds nuw %"class.bParse::bChunkPtr4", ptr %38, i32 0, i32 1
  store ptr %39, ptr %8, align 8, !tbaa !4
  %40 = load ptr, ptr %8, align 8, !tbaa !4
  %41 = getelementptr inbounds i8, ptr %40, i64 0
  %42 = load i8, ptr %41, align 1, !tbaa !11
  store i8 %42, ptr %7, align 1, !tbaa !11
  %43 = load ptr, ptr %8, align 8, !tbaa !4
  %44 = getelementptr inbounds i8, ptr %43, i64 3
  %45 = load i8, ptr %44, align 1, !tbaa !11
  %46 = load ptr, ptr %8, align 8, !tbaa !4
  %47 = getelementptr inbounds i8, ptr %46, i64 0
  store i8 %45, ptr %47, align 1, !tbaa !11
  %48 = load i8, ptr %7, align 1, !tbaa !11
  %49 = load ptr, ptr %8, align 8, !tbaa !4
  %50 = getelementptr inbounds i8, ptr %49, i64 3
  store i8 %48, ptr %50, align 1, !tbaa !11
  %51 = load ptr, ptr %8, align 8, !tbaa !4
  %52 = getelementptr inbounds i8, ptr %51, i64 1
  %53 = load i8, ptr %52, align 1, !tbaa !11
  store i8 %53, ptr %7, align 1, !tbaa !11
  %54 = load ptr, ptr %8, align 8, !tbaa !4
  %55 = getelementptr inbounds i8, ptr %54, i64 2
  %56 = load i8, ptr %55, align 1, !tbaa !11
  %57 = load ptr, ptr %8, align 8, !tbaa !4
  %58 = getelementptr inbounds i8, ptr %57, i64 1
  store i8 %56, ptr %58, align 1, !tbaa !11
  %59 = load i8, ptr %7, align 1, !tbaa !11
  %60 = load ptr, ptr %8, align 8, !tbaa !4
  %61 = getelementptr inbounds i8, ptr %60, i64 2
  store i8 %59, ptr %61, align 1, !tbaa !11
  call void @llvm.lifetime.end.p0(i64 8, ptr %8) #16
  call void @llvm.lifetime.end.p0(i64 1, ptr %7) #16
  call void @llvm.lifetime.start.p0(i64 1, ptr %9) #16
  call void @llvm.lifetime.start.p0(i64 8, ptr %10) #16
  %62 = load ptr, ptr %6, align 8, !tbaa !90
  %63 = getelementptr inbounds nuw %"class.bParse::bChunkPtr4", ptr %62, i32 0, i32 3
  store ptr %63, ptr %10, align 8, !tbaa !4
  %64 = load ptr, ptr %10, align 8, !tbaa !4
  %65 = getelementptr inbounds i8, ptr %64, i64 0
  %66 = load i8, ptr %65, align 1, !tbaa !11
  store i8 %66, ptr %9, align 1, !tbaa !11
  %67 = load ptr, ptr %10, align 8, !tbaa !4
  %68 = getelementptr inbounds i8, ptr %67, i64 3
  %69 = load i8, ptr %68, align 1, !tbaa !11
  %70 = load ptr, ptr %10, align 8, !tbaa !4
  %71 = getelementptr inbounds i8, ptr %70, i64 0
  store i8 %69, ptr %71, align 1, !tbaa !11
  %72 = load i8, ptr %9, align 1, !tbaa !11
  %73 = load ptr, ptr %10, align 8, !tbaa !4
  %74 = getelementptr inbounds i8, ptr %73, i64 3
  store i8 %72, ptr %74, align 1, !tbaa !11
  %75 = load ptr, ptr %10, align 8, !tbaa !4
  %76 = getelementptr inbounds i8, ptr %75, i64 1
  %77 = load i8, ptr %76, align 1, !tbaa !11
  store i8 %77, ptr %9, align 1, !tbaa !11
  %78 = load ptr, ptr %10, align 8, !tbaa !4
  %79 = getelementptr inbounds i8, ptr %78, i64 2
  %80 = load i8, ptr %79, align 1, !tbaa !11
  %81 = load ptr, ptr %10, align 8, !tbaa !4
  %82 = getelementptr inbounds i8, ptr %81, i64 1
  store i8 %80, ptr %82, align 1, !tbaa !11
  %83 = load i8, ptr %9, align 1, !tbaa !11
  %84 = load ptr, ptr %10, align 8, !tbaa !4
  %85 = getelementptr inbounds i8, ptr %84, i64 2
  store i8 %83, ptr %85, align 1, !tbaa !11
  call void @llvm.lifetime.end.p0(i64 8, ptr %10) #16
  call void @llvm.lifetime.end.p0(i64 1, ptr %9) #16
  call void @llvm.lifetime.start.p0(i64 1, ptr %11) #16
  call void @llvm.lifetime.start.p0(i64 8, ptr %12) #16
  %86 = load ptr, ptr %6, align 8, !tbaa !90
  %87 = getelementptr inbounds nuw %"class.bParse::bChunkPtr4", ptr %86, i32 0, i32 4
  store ptr %87, ptr %12, align 8, !tbaa !4
  %88 = load ptr, ptr %12, align 8, !tbaa !4
  %89 = getelementptr inbounds i8, ptr %88, i64 0
  %90 = load i8, ptr %89, align 1, !tbaa !11
  store i8 %90, ptr %11, align 1, !tbaa !11
  %91 = load ptr, ptr %12, align 8, !tbaa !4
  %92 = getelementptr inbounds i8, ptr %91, i64 3
  %93 = load i8, ptr %92, align 1, !tbaa !11
  %94 = load ptr, ptr %12, align 8, !tbaa !4
  %95 = getelementptr inbounds i8, ptr %94, i64 0
  store i8 %93, ptr %95, align 1, !tbaa !11
  %96 = load i8, ptr %11, align 1, !tbaa !11
  %97 = load ptr, ptr %12, align 8, !tbaa !4
  %98 = getelementptr inbounds i8, ptr %97, i64 3
  store i8 %96, ptr %98, align 1, !tbaa !11
  %99 = load ptr, ptr %12, align 8, !tbaa !4
  %100 = getelementptr inbounds i8, ptr %99, i64 1
  %101 = load i8, ptr %100, align 1, !tbaa !11
  store i8 %101, ptr %11, align 1, !tbaa !11
  %102 = load ptr, ptr %12, align 8, !tbaa !4
  %103 = getelementptr inbounds i8, ptr %102, i64 2
  %104 = load i8, ptr %103, align 1, !tbaa !11
  %105 = load ptr, ptr %12, align 8, !tbaa !4
  %106 = getelementptr inbounds i8, ptr %105, i64 1
  store i8 %104, ptr %106, align 1, !tbaa !11
  %107 = load i8, ptr %11, align 1, !tbaa !11
  %108 = load ptr, ptr %12, align 8, !tbaa !4
  %109 = getelementptr inbounds i8, ptr %108, i64 2
  store i8 %107, ptr %109, align 1, !tbaa !11
  call void @llvm.lifetime.end.p0(i64 8, ptr %12) #16
  call void @llvm.lifetime.end.p0(i64 1, ptr %11) #16
  call void @llvm.lifetime.end.p0(i64 8, ptr %6) #16
  br label %195

110:                                              ; preds = %2
  call void @llvm.lifetime.start.p0(i64 8, ptr %13) #16
  %111 = load ptr, ptr %4, align 8, !tbaa !4
  store ptr %111, ptr %13, align 8, !tbaa !92
  %112 = load ptr, ptr %13, align 8, !tbaa !92
  %113 = getelementptr inbounds nuw %"class.bParse::bChunkPtr8", ptr %112, i32 0, i32 0
  %114 = load i32, ptr %113, align 8, !tbaa !70
  %115 = and i32 %114, 65535
  %116 = icmp eq i32 %115, 0
  br i1 %116, label %117, label %122

117:                                              ; preds = %110
  %118 = load ptr, ptr %13, align 8, !tbaa !92
  %119 = getelementptr inbounds nuw %"class.bParse::bChunkPtr8", ptr %118, i32 0, i32 0
  %120 = load i32, ptr %119, align 8, !tbaa !70
  %121 = ashr i32 %120, 16
  store i32 %121, ptr %119, align 8, !tbaa !70
  br label %122

122:                                              ; preds = %117, %110
  call void @llvm.lifetime.start.p0(i64 1, ptr %14) #16
  call void @llvm.lifetime.start.p0(i64 8, ptr %15) #16
  %123 = load ptr, ptr %13, align 8, !tbaa !92
  %124 = getelementptr inbounds nuw %"class.bParse::bChunkPtr8", ptr %123, i32 0, i32 1
  store ptr %124, ptr %15, align 8, !tbaa !4
  %125 = load ptr, ptr %15, align 8, !tbaa !4
  %126 = getelementptr inbounds i8, ptr %125, i64 0
  %127 = load i8, ptr %126, align 1, !tbaa !11
  store i8 %127, ptr %14, align 1, !tbaa !11
  %128 = load ptr, ptr %15, align 8, !tbaa !4
  %129 = getelementptr inbounds i8, ptr %128, i64 3
  %130 = load i8, ptr %129, align 1, !tbaa !11
  %131 = load ptr, ptr %15, align 8, !tbaa !4
  %132 = getelementptr inbounds i8, ptr %131, i64 0
  store i8 %130, ptr %132, align 1, !tbaa !11
  %133 = load i8, ptr %14, align 1, !tbaa !11
  %134 = load ptr, ptr %15, align 8, !tbaa !4
  %135 = getelementptr inbounds i8, ptr %134, i64 3
  store i8 %133, ptr %135, align 1, !tbaa !11
  %136 = load ptr, ptr %15, align 8, !tbaa !4
  %137 = getelementptr inbounds i8, ptr %136, i64 1
  %138 = load i8, ptr %137, align 1, !tbaa !11
  store i8 %138, ptr %14, align 1, !tbaa !11
  %139 = load ptr, ptr %15, align 8, !tbaa !4
  %140 = getelementptr inbounds i8, ptr %139, i64 2
  %141 = load i8, ptr %140, align 1, !tbaa !11
  %142 = load ptr, ptr %15, align 8, !tbaa !4
  %143 = getelementptr inbounds i8, ptr %142, i64 1
  store i8 %141, ptr %143, align 1, !tbaa !11
  %144 = load i8, ptr %14, align 1, !tbaa !11
  %145 = load ptr, ptr %15, align 8, !tbaa !4
  %146 = getelementptr inbounds i8, ptr %145, i64 2
  store i8 %144, ptr %146, align 1, !tbaa !11
  call void @llvm.lifetime.end.p0(i64 8, ptr %15) #16
  call void @llvm.lifetime.end.p0(i64 1, ptr %14) #16
  call void @llvm.lifetime.start.p0(i64 1, ptr %16) #16
  call void @llvm.lifetime.start.p0(i64 8, ptr %17) #16
  %147 = load ptr, ptr %13, align 8, !tbaa !92
  %148 = getelementptr inbounds nuw %"class.bParse::bChunkPtr8", ptr %147, i32 0, i32 3
  store ptr %148, ptr %17, align 8, !tbaa !4
  %149 = load ptr, ptr %17, align 8, !tbaa !4
  %150 = getelementptr inbounds i8, ptr %149, i64 0
  %151 = load i8, ptr %150, align 1, !tbaa !11
  store i8 %151, ptr %16, align 1, !tbaa !11
  %152 = load ptr, ptr %17, align 8, !tbaa !4
  %153 = getelementptr inbounds i8, ptr %152, i64 3
  %154 = load i8, ptr %153, align 1, !tbaa !11
  %155 = load ptr, ptr %17, align 8, !tbaa !4
  %156 = getelementptr inbounds i8, ptr %155, i64 0
  store i8 %154, ptr %156, align 1, !tbaa !11
  %157 = load i8, ptr %16, align 1, !tbaa !11
  %158 = load ptr, ptr %17, align 8, !tbaa !4
  %159 = getelementptr inbounds i8, ptr %158, i64 3
  store i8 %157, ptr %159, align 1, !tbaa !11
  %160 = load ptr, ptr %17, align 8, !tbaa !4
  %161 = getelementptr inbounds i8, ptr %160, i64 1
  %162 = load i8, ptr %161, align 1, !tbaa !11
  store i8 %162, ptr %16, align 1, !tbaa !11
  %163 = load ptr, ptr %17, align 8, !tbaa !4
  %164 = getelementptr inbounds i8, ptr %163, i64 2
  %165 = load i8, ptr %164, align 1, !tbaa !11
  %166 = load ptr, ptr %17, align 8, !tbaa !4
  %167 = getelementptr inbounds i8, ptr %166, i64 1
  store i8 %165, ptr %167, align 1, !tbaa !11
  %168 = load i8, ptr %16, align 1, !tbaa !11
  %169 = load ptr, ptr %17, align 8, !tbaa !4
  %170 = getelementptr inbounds i8, ptr %169, i64 2
  store i8 %168, ptr %170, align 1, !tbaa !11
  call void @llvm.lifetime.end.p0(i64 8, ptr %17) #16
  call void @llvm.lifetime.end.p0(i64 1, ptr %16) #16
  call void @llvm.lifetime.start.p0(i64 1, ptr %18) #16
  call void @llvm.lifetime.start.p0(i64 8, ptr %19) #16
  %171 = load ptr, ptr %13, align 8, !tbaa !92
  %172 = getelementptr inbounds nuw %"class.bParse::bChunkPtr8", ptr %171, i32 0, i32 4
  store ptr %172, ptr %19, align 8, !tbaa !4
  %173 = load ptr, ptr %19, align 8, !tbaa !4
  %174 = getelementptr inbounds i8, ptr %173, i64 0
  %175 = load i8, ptr %174, align 1, !tbaa !11
  store i8 %175, ptr %18, align 1, !tbaa !11
  %176 = load ptr, ptr %19, align 8, !tbaa !4
  %177 = getelementptr inbounds i8, ptr %176, i64 3
  %178 = load i8, ptr %177, align 1, !tbaa !11
  %179 = load ptr, ptr %19, align 8, !tbaa !4
  %180 = getelementptr inbounds i8, ptr %179, i64 0
  store i8 %178, ptr %180, align 1, !tbaa !11
  %181 = load i8, ptr %18, align 1, !tbaa !11
  %182 = load ptr, ptr %19, align 8, !tbaa !4
  %183 = getelementptr inbounds i8, ptr %182, i64 3
  store i8 %181, ptr %183, align 1, !tbaa !11
  %184 = load ptr, ptr %19, align 8, !tbaa !4
  %185 = getelementptr inbounds i8, ptr %184, i64 1
  %186 = load i8, ptr %185, align 1, !tbaa !11
  store i8 %186, ptr %18, align 1, !tbaa !11
  %187 = load ptr, ptr %19, align 8, !tbaa !4
  %188 = getelementptr inbounds i8, ptr %187, i64 2
  %189 = load i8, ptr %188, align 1, !tbaa !11
  %190 = load ptr, ptr %19, align 8, !tbaa !4
  %191 = getelementptr inbounds i8, ptr %190, i64 1
  store i8 %189, ptr %191, align 1, !tbaa !11
  %192 = load i8, ptr %18, align 1, !tbaa !11
  %193 = load ptr, ptr %19, align 8, !tbaa !4
  %194 = getelementptr inbounds i8, ptr %193, i64 2
  store i8 %192, ptr %194, align 1, !tbaa !11
  call void @llvm.lifetime.end.p0(i64 8, ptr %19) #16
  call void @llvm.lifetime.end.p0(i64 1, ptr %18) #16
  call void @llvm.lifetime.end.p0(i64 8, ptr %13) #16
  br label %195

195:                                              ; preds = %122, %37
  call void @llvm.lifetime.end.p0(i64 1, ptr %5) #16
  ret void
}