; Function Attrs: mustprogress nofree norecurse nosync nounwind willreturn memory(argmem: readwrite) uwtable
define dso_local void @_ZN6bParse5bFile7swapLenEPc(ptr noundef nonnull readonly align 8 captures(none) dereferenceable(540) %0, ptr noundef captures(none) %1) local_unnamed_addr #20 align 2 {
  %3 = getelementptr inbounds nuw i8, ptr %0, i64 536
  %4 = load i32, ptr %3, align 8, !tbaa !56
  %5 = and i32 %4, 16
  %.not = icmp eq i32 %5, 0
  br i1 %.not, label %12, label %6

6:                                                ; preds = %2
  %7 = load i32, ptr %1, align 4, !tbaa !112
  %8 = and i32 %7, 65535
  %9 = icmp eq i32 %8, 0
  br i1 %9, label %10, label %18

10:                                               ; preds = %6
  %11 = ashr exact i32 %7, 16
  store i32 %11, ptr %1, align 4, !tbaa !112
  br label %18

12:                                               ; preds = %2
  %13 = load i32, ptr %1, align 8, !tbaa !114
  %14 = and i32 %13, 65535
  %15 = icmp eq i32 %14, 0
  br i1 %15, label %16, label %18

16:                                               ; preds = %12
  %17 = ashr exact i32 %13, 16
  store i32 %17, ptr %1, align 8, !tbaa !114
  br label %18

18:                                               ; preds = %12, %16, %6, %10
  %.sink101 = phi i64 [ 12, %10 ], [ 12, %6 ], [ 16, %16 ], [ 16, %12 ]
  %.sink99 = phi i64 [ 15, %10 ], [ 15, %6 ], [ 19, %16 ], [ 19, %12 ]
  %.sink93 = phi i64 [ 13, %10 ], [ 13, %6 ], [ 17, %16 ], [ 17, %12 ]
  %.sink91 = phi i64 [ 14, %10 ], [ 14, %6 ], [ 18, %16 ], [ 18, %12 ]
  %.sink85 = phi i64 [ 16, %10 ], [ 16, %6 ], [ 20, %16 ], [ 20, %12 ]
  %.sink83 = phi i64 [ 19, %10 ], [ 19, %6 ], [ 23, %16 ], [ 23, %12 ]
  %.sink = phi i64 [ 17, %10 ], [ 17, %6 ], [ 21, %16 ], [ 21, %12 ]
  %.sink76 = phi i64 [ 18, %10 ], [ 18, %6 ], [ 22, %16 ], [ 22, %12 ]
  %19 = getelementptr inbounds nuw i8, ptr %1, i64 4
  %20 = load i8, ptr %19, align 1, !tbaa !4
  %21 = getelementptr inbounds nuw i8, ptr %1, i64 7
  %22 = load i8, ptr %21, align 1, !tbaa !4
  store i8 %22, ptr %19, align 1, !tbaa !4
  store i8 %20, ptr %21, align 1, !tbaa !4
  %23 = getelementptr inbounds nuw i8, ptr %1, i64 5
  %24 = load i8, ptr %23, align 1, !tbaa !4
  %25 = getelementptr inbounds nuw i8, ptr %1, i64 6
  %26 = load i8, ptr %25, align 1, !tbaa !4
  store i8 %26, ptr %23, align 1, !tbaa !4
  store i8 %24, ptr %25, align 1, !tbaa !4
  %27 = getelementptr inbounds nuw i8, ptr %1, i64 %.sink101
  %28 = load i8, ptr %27, align 1, !tbaa !4
  %29 = getelementptr inbounds nuw i8, ptr %1, i64 %.sink99
  %30 = load i8, ptr %29, align 1, !tbaa !4
  store i8 %30, ptr %27, align 1, !tbaa !4
  store i8 %28, ptr %29, align 1, !tbaa !4
  %31 = getelementptr inbounds nuw i8, ptr %1, i64 %.sink93
  %32 = load i8, ptr %31, align 1, !tbaa !4
  %33 = getelementptr inbounds nuw i8, ptr %1, i64 %.sink91
  %34 = load i8, ptr %33, align 1, !tbaa !4
  store i8 %34, ptr %31, align 1, !tbaa !4
  store i8 %32, ptr %33, align 1, !tbaa !4
  %35 = getelementptr inbounds nuw i8, ptr %1, i64 %.sink85
  %36 = load i8, ptr %35, align 1, !tbaa !4
  %37 = getelementptr inbounds nuw i8, ptr %1, i64 %.sink83
  %38 = load i8, ptr %37, align 1, !tbaa !4
  store i8 %38, ptr %35, align 1, !tbaa !4
  store i8 %36, ptr %37, align 1, !tbaa !4
  %39 = getelementptr inbounds nuw i8, ptr %1, i64 %.sink
  %40 = load i8, ptr %39, align 1, !tbaa !4
  %41 = getelementptr inbounds nuw i8, ptr %1, i64 %.sink76
  %42 = load i8, ptr %41, align 1, !tbaa !4
  store i8 %42, ptr %39, align 1, !tbaa !4
  store i8 %40, ptr %41, align 1, !tbaa !4
  ret void
}